target datalayout = "e-m:e-p270:32:32-p271:32:32-p272:64:64-i64:64-i128:128-f80:128-n8:16:32:64-S128"
target triple = "x86_64-pc-linux-gnu"

%"class.nix::AutoCloseFD" = type { i32 }
%"class.nix::Pipe" = type { %"class.nix::AutoCloseFD", %"class.nix::AutoCloseFD" }

@_ZTIN3nix8SysErrorE = linkonce_odr constant { ptr, ptr, ptr } { ptr getelementptr inbounds (ptr, ptr @_ZTVN10__cxxabiv120__si_class_type_infoE, i64 2), ptr @_ZTSN3nix8SysErrorE, ptr @_ZTIN3nix11SystemErrorE }, comdat, align 8
@.str.9 = private unnamed_addr constant [28 x i8] c"closing file descriptor %1%\00", align 1

; Function Attrs: mustprogress uwtable
define void @_ZN3nix11AutoCloseFD5closeEv(ptr noundef nonnull align 4 dereferenceable(4) %0) #3 align 2 personality ptr @__gxx_personality_v0 {
  %2 = alloca ptr, align 8
  %3 = alloca ptr, align 8
  %4 = alloca i32, align 4
  store ptr %0, ptr %2, align 8
  %5 = load ptr, ptr %2, align 8
  %6 = getelementptr inbounds %"class.nix::AutoCloseFD", ptr %5, i32 0, i32 0
  %7 = load i32, ptr %6, align 4
  %8 = icmp ne i32 %7, -1
  br i1 %8, label %9, label %24

9:                                                ; preds = %1
  %10 = getelementptr inbounds %"class.nix::AutoCloseFD", ptr %5, i32 0, i32 0
  %11 = load i32, ptr %10, align 4
  %12 = call i32 @close(i32 noundef %11)
  %13 = icmp eq i32 %12, -1
  br i1 %13, label %14, label %22

14:                                               ; preds = %9
  %15 = call ptr @__cxa_allocate_exception(i64 384) #1
  %16 = getelementptr inbounds %"class.nix::AutoCloseFD", ptr %5, i32 0, i32 0
  invoke void @_ZN3nix8SysErrorC2IJA28_ciEEEDpRKT_(ptr noundef nonnull align 8 dereferenceable(380) %15, ptr noundef nonnull align 1 dereferenceable(28) @.str.9, ptr noundef nonnull align 4 dereferenceable(4) %16)
          to label %17 unwind label %18

17:                                               ; preds = %14
  call void @__cxa_throw(ptr %15, ptr @_ZTIN3nix8SysErrorE, ptr @_ZN3nix8SysErrorD2Ev) #19
  unreachable

18:                                               ; preds = %14
  %19 = landingpad { ptr, i32 }
          cleanup
  %20 = extractvalue { ptr, i32 } %19, 0
  store ptr %20, ptr %3, align 8
  %21 = extractvalue { ptr, i32 } %19, 1
  store i32 %21, ptr %4, align 4
  call void @__cxa_free_exception(ptr %15) #1
  br label %25

22:                                               ; preds = %9
  %23 = getelementptr inbounds %"class.nix::AutoCloseFD", ptr %5, i32 0, i32 0
  store i32 -1, ptr %23, align 4
  br label %24

24:                                               ; preds = %22, %1
  ret void

25:                                               ; preds = %18
  %26 = load ptr, ptr %3, align 8
  %27 = load i32, ptr %4, align 4
  %28 = insertvalue { ptr, i32 } poison, ptr %26, 0
  %29 = insertvalue { ptr, i32 } %28, i32 %27, 1
  resume { ptr, i32 } %29
}

; Function Attrs: mustprogress uwtable
define void @_ZN3nix4Pipe5closeEv(ptr noundef nonnull align 4 dereferenceable(8) %0) #3 align 2 {
  %2 = alloca ptr, align 8
  store ptr %0, ptr %2, align 8
  %3 = load ptr, ptr %2, align 8
  %4 = getelementptr inbounds %"class.nix::Pipe", ptr %3, i32 0, i32 0
  call void @_ZN3nix11AutoCloseFD5closeEv(ptr noundef nonnull align 4 dereferenceable(4) %4)
  %5 = getelementptr inbounds %"class.nix::Pipe", ptr %3, i32 0, i32 1
  call void @_ZN3nix11AutoCloseFD5closeEv(ptr noundef nonnull align 4 dereferenceable(4) %5)
  ret void
}