; Function Attrs: mustprogress uwtable
define void @_ZN3nix4Pipe5closeEv(ptr noundef nonnull align 4 dereferenceable(8) %0) local_unnamed_addr #2 align 2 personality ptr @__gxx_personality_v0 {
  %2 = load i32, ptr %0, align 4
  %.not.i = icmp eq i32 %2, -1
  br i1 %.not.i, label %_ZN3nix11AutoCloseFD5closeEv.exit, label %3

3:                                                ; preds = %1
  %4 = tail call i32 @close(i32 noundef %2)
  %5 = icmp eq i32 %4, -1
  br i1 %5, label %6, label %11

6:                                                ; preds = %3
  %7 = tail call ptr @__cxa_allocate_exception(i64 384) #29
  invoke void @_ZN3nix8SysErrorC2IJA28_ciEEEDpRKT_(ptr noundef nonnull align 8 dereferenceable(380) %7, ptr noundef nonnull align 1 dereferenceable(28) @.str.9, ptr noundef nonnull align 4 dereferenceable(4) %0)
          to label %8 unwind label %9

8:                                                ; preds = %6
  tail call void @__cxa_throw(ptr nonnull %7, ptr nonnull @_ZTIN3nix8SysErrorE, ptr nonnull @_ZN3nix8SysErrorD2Ev) #30
  unreachable

common.resume:                                    ; preds = %20, %9
  %.sink = phi ptr [ %18, %20 ], [ %7, %9 ]
  %common.resume.op = phi { ptr, i32 } [ %21, %20 ], [ %10, %9 ]
  tail call void @__cxa_free_exception(ptr %.sink) #29
  resume { ptr, i32 } %common.resume.op

9:                                                ; preds = %6
  %10 = landingpad { ptr, i32 }
          cleanup
  br label %common.resume

11:                                               ; preds = %3
  store i32 -1, ptr %0, align 4
  br label %_ZN3nix11AutoCloseFD5closeEv.exit

_ZN3nix11AutoCloseFD5closeEv.exit:                ; preds = %1, %11
  %12 = getelementptr inbounds i8, ptr %0, i64 4
  %13 = load i32, ptr %12, align 4
  %.not.i1 = icmp eq i32 %13, -1
  br i1 %.not.i1, label %_ZN3nix11AutoCloseFD5closeEv.exit2, label %14

14:                                               ; preds = %_ZN3nix11AutoCloseFD5closeEv.exit
  %15 = tail call i32 @close(i32 noundef %13)
  %16 = icmp eq i32 %15, -1
  br i1 %16, label %17, label %22

17:                                               ; preds = %14
  %18 = tail call ptr @__cxa_allocate_exception(i64 384) #29
  invoke void @_ZN3nix8SysErrorC2IJA28_ciEEEDpRKT_(ptr noundef nonnull align 8 dereferenceable(380) %18, ptr noundef nonnull align 1 dereferenceable(28) @.str.9, ptr noundef nonnull align 4 dereferenceable(4) %12)
          to label %19 unwind label %20

19:                                               ; preds = %17
  tail call void @__cxa_throw(ptr nonnull %18, ptr nonnull @_ZTIN3nix8SysErrorE, ptr nonnull @_ZN3nix8SysErrorD2Ev) #30
  unreachable

20:                                               ; preds = %17
  %21 = landingpad { ptr, i32 }
          cleanup
  br label %common.resume

22:                                               ; preds = %14
  store i32 -1, ptr %12, align 4
  br label %_ZN3nix11AutoCloseFD5closeEv.exit2

_ZN3nix11AutoCloseFD5closeEv.exit2:               ; preds = %_ZN3nix11AutoCloseFD5closeEv.exit, %22
  ret void
}